target datalayout = "e-m:e-p270:32:32-p271:32:32-p272:64:64-i64:64-i128:128-f80:128-n8:16:32:64-S128"
target triple = "x86_64-pc-linux-gnu"

%struct.anon = type { [4 x ptr], [4 x ptr], i32, i32, i32, i32, i32, i32, i32, i32, i32, i32, [3 x i32], [3 x i32], [20 x i32], [20 x i32], [2 x i32], [2 x i32], [6 x [6 x double]], [6 x double], [6 x double], [6 x double], [6 x double], double, double, double, [2400 x double], [2400 x double], ptr, ptr, ptr, i32 }

; Function Attrs: nounwind uwtable
define internal double @doubleIntgr(ptr noundef %0, i32 noundef %1, ptr noundef %2) #0 {
  %4 = alloca ptr, align 8
  %5 = alloca i32, align 4
  %6 = alloca ptr, align 8
  %7 = alloca ptr, align 8
  %8 = alloca i32, align 4
  %9 = alloca i32, align 4
  %10 = alloca i32, align 4
  %11 = alloca i32, align 4
  %12 = alloca double, align 8
  %13 = alloca double, align 8
  %14 = alloca double, align 8
  %15 = alloca double, align 8
  %16 = alloca i32, align 4
  %17 = alloca i32, align 4
  store ptr %0, ptr %4, align 8, !tbaa !13
  store i32 %1, ptr %5, align 4, !tbaa !4
  store ptr %2, ptr %6, align 8, !tbaa !15
  call void @llvm.lifetime.start.p0(i64 8, ptr %7) #6
  call void @llvm.lifetime.start.p0(i64 4, ptr %8) #6
  call void @llvm.lifetime.start.p0(i64 4, ptr %9) #6
  call void @llvm.lifetime.start.p0(i64 4, ptr %10) #6
  call void @llvm.lifetime.start.p0(i64 4, ptr %11) #6
  call void @llvm.lifetime.start.p0(i64 8, ptr %12) #6
  call void @llvm.lifetime.start.p0(i64 8, ptr %13) #6
  call void @llvm.lifetime.start.p0(i64 8, ptr %14) #6
  call void @llvm.lifetime.start.p0(i64 8, ptr %15) #6
  call void @llvm.lifetime.start.p0(i64 4, ptr %16) #6
  call void @llvm.lifetime.start.p0(i64 4, ptr %17) #6
  %18 = load ptr, ptr %4, align 8, !tbaa !13
  %19 = call ptr @N_VGetArrayPointer(ptr noundef %18)
  store ptr %19, ptr %7, align 8, !tbaa !37
  %20 = load ptr, ptr %6, align 8, !tbaa !15
  %21 = getelementptr inbounds nuw %struct.anon, ptr %20, i32 0, i32 2
  %22 = load i32, ptr %21, align 8, !tbaa !39
  store i32 %22, ptr %8, align 4, !tbaa !4
  %23 = load ptr, ptr %6, align 8, !tbaa !15
  %24 = getelementptr inbounds nuw %struct.anon, ptr %23, i32 0, i32 6
  %25 = load i32, ptr %24, align 8, !tbaa !45
  store i32 %25, ptr %9, align 4, !tbaa !4
  %26 = load ptr, ptr %6, align 8, !tbaa !15
  %27 = getelementptr inbounds nuw %struct.anon, ptr %26, i32 0, i32 7
  %28 = load i32, ptr %27, align 4, !tbaa !46
  store i32 %28, ptr %10, align 4, !tbaa !4
  %29 = load ptr, ptr %6, align 8, !tbaa !15
  %30 = getelementptr inbounds nuw %struct.anon, ptr %29, i32 0, i32 3
  %31 = load i32, ptr %30, align 4, !tbaa !40
  store i32 %31, ptr %11, align 4, !tbaa !4
  %32 = load ptr, ptr %6, align 8, !tbaa !15
  %33 = getelementptr inbounds nuw %struct.anon, ptr %32, i32 0, i32 23
  %34 = load double, ptr %33, align 8, !tbaa !41
  store double %34, ptr %12, align 8, !tbaa !11
  %35 = load ptr, ptr %6, align 8, !tbaa !15
  %36 = getelementptr inbounds nuw %struct.anon, ptr %35, i32 0, i32 24
  %37 = load double, ptr %36, align 8, !tbaa !42
  store double %37, ptr %13, align 8, !tbaa !11
  store i32 0, ptr %17, align 4, !tbaa !4
  %38 = load ptr, ptr %7, align 8, !tbaa !37
  %39 = load i32, ptr %5, align 4, !tbaa !4
  %40 = sub nsw i32 %39, 1
  %41 = load i32, ptr %17, align 4, !tbaa !4
  %42 = load i32, ptr %11, align 4, !tbaa !4
  %43 = mul nsw i32 %41, %42
  %44 = add nsw i32 %40, %43
  %45 = sext i32 %44 to i64
  %46 = getelementptr inbounds double, ptr %38, i64 %45
  %47 = load double, ptr %46, align 8, !tbaa !11
  store double %47, ptr %15, align 8, !tbaa !11
  store i32 1, ptr %16, align 4, !tbaa !4
  br label %48

48:                                               ; preds = %70, %3
  %49 = load i32, ptr %16, align 4, !tbaa !4
  %50 = load i32, ptr %9, align 4, !tbaa !4
  %51 = sub nsw i32 %50, 1
  %52 = icmp slt i32 %49, %51
  br i1 %52, label %53, label %73

53:                                               ; preds = %48
  %54 = load ptr, ptr %7, align 8, !tbaa !37
  %55 = load i32, ptr %5, align 4, !tbaa !4
  %56 = sub nsw i32 %55, 1
  %57 = load i32, ptr %16, align 4, !tbaa !4
  %58 = load i32, ptr %8, align 4, !tbaa !4
  %59 = mul nsw i32 %57, %58
  %60 = add nsw i32 %56, %59
  %61 = load i32, ptr %17, align 4, !tbaa !4
  %62 = load i32, ptr %11, align 4, !tbaa !4
  %63 = mul nsw i32 %61, %62
  %64 = add nsw i32 %60, %63
  %65 = sext i32 %64 to i64
  %66 = getelementptr inbounds double, ptr %54, i64 %65
  %67 = load double, ptr %66, align 8, !tbaa !11
  %68 = load double, ptr %15, align 8, !tbaa !11
  %69 = call double @llvm.fmuladd.f64(double 2.000000e+00, double %67, double %68)
  store double %69, ptr %15, align 8, !tbaa !11
  br label %70

70:                                               ; preds = %53
  %71 = load i32, ptr %16, align 4, !tbaa !4
  %72 = add nsw i32 %71, 1
  store i32 %72, ptr %16, align 4, !tbaa !4
  br label %48

73:                                               ; preds = %48
  %74 = load ptr, ptr %7, align 8, !tbaa !37
  %75 = load i32, ptr %5, align 4, !tbaa !4
  %76 = sub nsw i32 %75, 1
  %77 = load i32, ptr %9, align 4, !tbaa !4
  %78 = sub nsw i32 %77, 1
  %79 = load i32, ptr %8, align 4, !tbaa !4
  %80 = mul nsw i32 %78, %79
  %81 = add nsw i32 %76, %80
  %82 = load i32, ptr %17, align 4, !tbaa !4
  %83 = load i32, ptr %11, align 4, !tbaa !4
  %84 = mul nsw i32 %82, %83
  %85 = add nsw i32 %81, %84
  %86 = sext i32 %85 to i64
  %87 = getelementptr inbounds double, ptr %74, i64 %86
  %88 = load double, ptr %87, align 8, !tbaa !11
  %89 = load double, ptr %15, align 8, !tbaa !11
  %90 = fadd double %89, %88
  store double %90, ptr %15, align 8, !tbaa !11
  %91 = load double, ptr %12, align 8, !tbaa !11
  %92 = fmul double 5.000000e-01, %91
  %93 = load double, ptr %15, align 8, !tbaa !11
  %94 = fmul double %93, %92
  store double %94, ptr %15, align 8, !tbaa !11
  %95 = load double, ptr %15, align 8, !tbaa !11
  store double %95, ptr %14, align 8, !tbaa !11
  store i32 1, ptr %17, align 4, !tbaa !4
  br label %96

96:                                               ; preds = %162, %73
  %97 = load i32, ptr %17, align 4, !tbaa !4
  %98 = load i32, ptr %10, align 4, !tbaa !4
  %99 = sub nsw i32 %98, 1
  %100 = icmp slt i32 %97, %99
  br i1 %100, label %101, label %165

101:                                              ; preds = %96
  %102 = load ptr, ptr %7, align 8, !tbaa !37
  %103 = load i32, ptr %5, align 4, !tbaa !4
  %104 = sub nsw i32 %103, 1
  %105 = load i32, ptr %17, align 4, !tbaa !4
  %106 = load i32, ptr %11, align 4, !tbaa !4
  %107 = mul nsw i32 %105, %106
  %108 = add nsw i32 %104, %107
  %109 = sext i32 %108 to i64
  %110 = getelementptr inbounds double, ptr %102, i64 %109
  %111 = load double, ptr %110, align 8, !tbaa !11
  store double %111, ptr %15, align 8, !tbaa !11
  store i32 1, ptr %16, align 4, !tbaa !4
  br label %112

112:                                              ; preds = %134, %101
  %113 = load i32, ptr %16, align 4, !tbaa !4
  %114 = load i32, ptr %9, align 4, !tbaa !4
  %115 = sub nsw i32 %114, 1
  %116 = icmp slt i32 %113, %115
  br i1 %116, label %117, label %137

117:                                              ; preds = %112
  %118 = load ptr, ptr %7, align 8, !tbaa !37
  %119 = load i32, ptr %5, align 4, !tbaa !4
  %120 = sub nsw i32 %119, 1
  %121 = load i32, ptr %16, align 4, !tbaa !4
  %122 = load i32, ptr %8, align 4, !tbaa !4
  %123 = mul nsw i32 %121, %122
  %124 = add nsw i32 %120, %123
  %125 = load i32, ptr %17, align 4, !tbaa !4
  %126 = load i32, ptr %11, align 4, !tbaa !4
  %127 = mul nsw i32 %125, %126
  %128 = add nsw i32 %124, %127
  %129 = sext i32 %128 to i64
  %130 = getelementptr inbounds double, ptr %118, i64 %129
  %131 = load double, ptr %130, align 8, !tbaa !11
  %132 = load double, ptr %15, align 8, !tbaa !11
  %133 = call double @llvm.fmuladd.f64(double 2.000000e+00, double %131, double %132)
  store double %133, ptr %15, align 8, !tbaa !11
  br label %134

134:                                              ; preds = %117
  %135 = load i32, ptr %16, align 4, !tbaa !4
  %136 = add nsw i32 %135, 1
  store i32 %136, ptr %16, align 4, !tbaa !4
  br label %112

137:                                              ; preds = %112
  %138 = load ptr, ptr %7, align 8, !tbaa !37
  %139 = load i32, ptr %5, align 4, !tbaa !4
  %140 = sub nsw i32 %139, 1
  %141 = load i32, ptr %9, align 4, !tbaa !4
  %142 = sub nsw i32 %141, 1
  %143 = load i32, ptr %8, align 4, !tbaa !4
  %144 = mul nsw i32 %142, %143
  %145 = add nsw i32 %140, %144
  %146 = load i32, ptr %17, align 4, !tbaa !4
  %147 = load i32, ptr %11, align 4, !tbaa !4
  %148 = mul nsw i32 %146, %147
  %149 = add nsw i32 %145, %148
  %150 = sext i32 %149 to i64
  %151 = getelementptr inbounds double, ptr %138, i64 %150
  %152 = load double, ptr %151, align 8, !tbaa !11
  %153 = load double, ptr %15, align 8, !tbaa !11
  %154 = fadd double %153, %152
  store double %154, ptr %15, align 8, !tbaa !11
  %155 = load double, ptr %12, align 8, !tbaa !11
  %156 = fmul double 5.000000e-01, %155
  %157 = load double, ptr %15, align 8, !tbaa !11
  %158 = fmul double %157, %156
  store double %158, ptr %15, align 8, !tbaa !11
  %159 = load double, ptr %15, align 8, !tbaa !11
  %160 = load double, ptr %14, align 8, !tbaa !11
  %161 = call double @llvm.fmuladd.f64(double 2.000000e+00, double %159, double %160)
  store double %161, ptr %14, align 8, !tbaa !11
  br label %162

162:                                              ; preds = %137
  %163 = load i32, ptr %17, align 4, !tbaa !4
  %164 = add nsw i32 %163, 1
  store i32 %164, ptr %17, align 4, !tbaa !4
  br label %96

165:                                              ; preds = %96
  %166 = load i32, ptr %10, align 4, !tbaa !4
  %167 = sub nsw i32 %166, 1
  store i32 %167, ptr %17, align 4, !tbaa !4
  %168 = load ptr, ptr %7, align 8, !tbaa !37
  %169 = load i32, ptr %5, align 4, !tbaa !4
  %170 = sub nsw i32 %169, 1
  %171 = load i32, ptr %17, align 4, !tbaa !4
  %172 = load i32, ptr %11, align 4, !tbaa !4
  %173 = mul nsw i32 %171, %172
  %174 = add nsw i32 %170, %173
  %175 = sext i32 %174 to i64
  %176 = getelementptr inbounds double, ptr %168, i64 %175
  %177 = load double, ptr %176, align 8, !tbaa !11
  store double %177, ptr %15, align 8, !tbaa !11
  store i32 1, ptr %16, align 4, !tbaa !4
  br label %178

178:                                              ; preds = %200, %165
  %179 = load i32, ptr %16, align 4, !tbaa !4
  %180 = load i32, ptr %9, align 4, !tbaa !4
  %181 = sub nsw i32 %180, 1
  %182 = icmp slt i32 %179, %181
  br i1 %182, label %183, label %203

183:                                              ; preds = %178
  %184 = load ptr, ptr %7, align 8, !tbaa !37
  %185 = load i32, ptr %5, align 4, !tbaa !4
  %186 = sub nsw i32 %185, 1
  %187 = load i32, ptr %16, align 4, !tbaa !4
  %188 = load i32, ptr %8, align 4, !tbaa !4
  %189 = mul nsw i32 %187, %188
  %190 = add nsw i32 %186, %189
  %191 = load i32, ptr %17, align 4, !tbaa !4
  %192 = load i32, ptr %11, align 4, !tbaa !4
  %193 = mul nsw i32 %191, %192
  %194 = add nsw i32 %190, %193
  %195 = sext i32 %194 to i64
  %196 = getelementptr inbounds double, ptr %184, i64 %195
  %197 = load double, ptr %196, align 8, !tbaa !11
  %198 = load double, ptr %15, align 8, !tbaa !11
  %199 = call double @llvm.fmuladd.f64(double 2.000000e+00, double %197, double %198)
  store double %199, ptr %15, align 8, !tbaa !11
  br label %200

200:                                              ; preds = %183
  %201 = load i32, ptr %16, align 4, !tbaa !4
  %202 = add nsw i32 %201, 1
  store i32 %202, ptr %16, align 4, !tbaa !4
  br label %178

203:                                              ; preds = %178
  %204 = load ptr, ptr %7, align 8, !tbaa !37
  %205 = load i32, ptr %5, align 4, !tbaa !4
  %206 = sub nsw i32 %205, 1
  %207 = load i32, ptr %9, align 4, !tbaa !4
  %208 = sub nsw i32 %207, 1
  %209 = load i32, ptr %8, align 4, !tbaa !4
  %210 = mul nsw i32 %208, %209
  %211 = add nsw i32 %206, %210
  %212 = load i32, ptr %17, align 4, !tbaa !4
  %213 = load i32, ptr %11, align 4, !tbaa !4
  %214 = mul nsw i32 %212, %213
  %215 = add nsw i32 %211, %214
  %216 = sext i32 %215 to i64
  %217 = getelementptr inbounds double, ptr %204, i64 %216
  %218 = load double, ptr %217, align 8, !tbaa !11
  %219 = load double, ptr %15, align 8, !tbaa !11
  %220 = fadd double %219, %218
  store double %220, ptr %15, align 8, !tbaa !11
  %221 = load double, ptr %12, align 8, !tbaa !11
  %222 = fmul double 5.000000e-01, %221
  %223 = load double, ptr %15, align 8, !tbaa !11
  %224 = fmul double %223, %222
  store double %224, ptr %15, align 8, !tbaa !11
  %225 = load double, ptr %15, align 8, !tbaa !11
  %226 = load double, ptr %14, align 8, !tbaa !11
  %227 = fadd double %226, %225
  store double %227, ptr %14, align 8, !tbaa !11
  %228 = load double, ptr %13, align 8, !tbaa !11
  %229 = fmul double 5.000000e-01, %228
  %230 = load double, ptr %14, align 8, !tbaa !11
  %231 = fmul double %230, %229
  store double %231, ptr %14, align 8, !tbaa !11
  %232 = load double, ptr %14, align 8, !tbaa !11
  call void @llvm.lifetime.end.p0(i64 4, ptr %17) #6
  call void @llvm.lifetime.end.p0(i64 4, ptr %16) #6
  call void @llvm.lifetime.end.p0(i64 8, ptr %15) #6
  call void @llvm.lifetime.end.p0(i64 8, ptr %14) #6
  call void @llvm.lifetime.end.p0(i64 8, ptr %13) #6
  call void @llvm.lifetime.end.p0(i64 8, ptr %12) #6
  call void @llvm.lifetime.end.p0(i64 4, ptr %11) #6
  call void @llvm.lifetime.end.p0(i64 4, ptr %10) #6
  call void @llvm.lifetime.end.p0(i64 4, ptr %9) #6
  call void @llvm.lifetime.end.p0(i64 4, ptr %8) #6
  call void @llvm.lifetime.end.p0(i64 8, ptr %7) #6
  ret double %232
}