; Function Attrs: nounwind uwtable
define internal fastcc double @doubleIntgr(ptr noundef %0, ptr noundef readonly captures(none) %1) unnamed_addr #0 {
  %3 = tail call ptr @N_VGetArrayPointer(ptr noundef %0) #10
  %4 = getelementptr inbounds nuw i8, ptr %1, i64 64
  %5 = load i32, ptr %4, align 8, !tbaa !21
  %6 = getelementptr inbounds nuw i8, ptr %1, i64 80
  %7 = load i32, ptr %6, align 8, !tbaa !28
  %8 = getelementptr inbounds nuw i8, ptr %1, i64 84
  %9 = load i32, ptr %8, align 4, !tbaa !29
  %10 = getelementptr inbounds nuw i8, ptr %1, i64 68
  %11 = load i32, ptr %10, align 4, !tbaa !23
  %12 = getelementptr inbounds nuw i8, ptr %1, i64 784
  %13 = load double, ptr %12, align 8, !tbaa !24
  %14 = getelementptr inbounds nuw i8, ptr %1, i64 792
  %15 = load double, ptr %14, align 8, !tbaa !25
  %16 = getelementptr i8, ptr %3, i64 40
  %17 = load double, ptr %16, align 8, !tbaa !22
  %18 = add i32 %7, -1
  %19 = icmp sgt i32 %7, 2
  br i1 %19, label %.lr.ph.preheader, label %._crit_edge

.lr.ph.preheader:                                 ; preds = %2
  %20 = sext i32 %5 to i64
  %wide.trip.count = zext nneg i32 %18 to i64
  br label %.lr.ph

.lr.ph:                                           ; preds = %.lr.ph.preheader, %.lr.ph
  %indvars.iv = phi i64 [ 1, %.lr.ph.preheader ], [ %indvars.iv.next, %.lr.ph ]
  %.08895 = phi double [ %17, %.lr.ph.preheader ], [ %23, %.lr.ph ]
  %21 = mul nsw i64 %indvars.iv, %20
  %gep = getelementptr double, ptr %16, i64 %21
  %22 = load double, ptr %gep, align 8, !tbaa !22
  %23 = tail call double @llvm.fmuladd.f64(double %22, double 2.000000e+00, double %.08895)
  %indvars.iv.next = add nuw nsw i64 %indvars.iv, 1
  %exitcond.not = icmp eq i64 %indvars.iv.next, %wide.trip.count
  br i1 %exitcond.not, label %._crit_edge, label %.lr.ph

._crit_edge:                                      ; preds = %.lr.ph, %2
  %.088.lcssa = phi double [ %17, %2 ], [ %23, %.lr.ph ]
  %24 = mul nsw i32 %18, %5
  %25 = add nsw i32 %24, 5
  %26 = sext i32 %25 to i64
  %27 = getelementptr inbounds double, ptr %3, i64 %26
  %28 = load double, ptr %27, align 8, !tbaa !22
  %29 = fadd double %.088.lcssa, %28
  %30 = fmul double %13, 5.000000e-01
  %31 = fmul double %30, %29
  %32 = add i32 %9, -1
  %33 = icmp sgt i32 %9, 2
  br i1 %33, label %.lr.ph109, label %._crit_edge110

.lr.ph109:                                        ; preds = %._crit_edge
  %34 = sext i32 %11 to i64
  %wide.trip.count139 = zext nneg i32 %32 to i64
  br i1 %19, label %.lr.ph101.us.preheader, label %.lr.ph109.split.preheader

.lr.ph109.split.preheader:                        ; preds = %.lr.ph109
  %invariant.gep = getelementptr double, ptr %3, i64 %26
  br label %.lr.ph109.split

.lr.ph101.us.preheader:                           ; preds = %.lr.ph109
  %wide.trip.count134 = zext i32 %18 to i64
  %invariant.gep152 = getelementptr double, ptr %3, i64 %26
  br label %.lr.ph101.us

.lr.ph101.us:                                     ; preds = %.lr.ph101.us.preheader, %._crit_edge102.us
  %indvars.iv136 = phi i64 [ 1, %.lr.ph101.us.preheader ], [ %indvars.iv.next137, %._crit_edge102.us ]
  %.091106.us = phi double [ %31, %.lr.ph101.us.preheader ], [ %50, %._crit_edge102.us ]
  %35 = mul nsw i64 %indvars.iv136, %34
  %gep105.us = getelementptr double, ptr %16, i64 %35
  %36 = load double, ptr %gep105.us, align 8, !tbaa !22
  %37 = trunc nsw i64 %35 to i32
  %38 = add i32 %37, 5
  br label %39

39:                                               ; preds = %.lr.ph101.us, %39
  %indvars.iv131 = phi i64 [ 1, %.lr.ph101.us ], [ %indvars.iv.next132, %39 ]
  %.18998.us = phi double [ %36, %.lr.ph101.us ], [ %46, %39 ]
  %40 = trunc i64 %indvars.iv131 to i32
  %41 = mul i32 %5, %40
  %42 = add i32 %38, %41
  %43 = sext i32 %42 to i64
  %44 = getelementptr inbounds double, ptr %3, i64 %43
  %45 = load double, ptr %44, align 8, !tbaa !22
  %46 = tail call double @llvm.fmuladd.f64(double %45, double 2.000000e+00, double %.18998.us)
  %indvars.iv.next132 = add nuw nsw i64 %indvars.iv131, 1
  %exitcond135.not = icmp eq i64 %indvars.iv.next132, %wide.trip.count134
  br i1 %exitcond135.not, label %._crit_edge102.us, label %39

._crit_edge102.us:                                ; preds = %39
  %gep153 = getelementptr double, ptr %invariant.gep152, i64 %35
  %47 = load double, ptr %gep153, align 8, !tbaa !22
  %48 = fadd double %46, %47
  %49 = fmul double %30, %48
  %50 = tail call double @llvm.fmuladd.f64(double %49, double 2.000000e+00, double %.091106.us)
  %indvars.iv.next137 = add nuw nsw i64 %indvars.iv136, 1
  %exitcond140.not = icmp eq i64 %indvars.iv.next137, %wide.trip.count139
  br i1 %exitcond140.not, label %._crit_edge110, label %.lr.ph101.us

.lr.ph109.split:                                  ; preds = %.lr.ph109.split.preheader, %.lr.ph109.split
  %indvars.iv126 = phi i64 [ 1, %.lr.ph109.split.preheader ], [ %indvars.iv.next127, %.lr.ph109.split ]
  %.091106 = phi double [ %31, %.lr.ph109.split.preheader ], [ %56, %.lr.ph109.split ]
  %51 = mul nsw i64 %indvars.iv126, %34
  %gep105 = getelementptr double, ptr %16, i64 %51
  %52 = load double, ptr %gep105, align 8, !tbaa !22
  %gep151 = getelementptr double, ptr %invariant.gep, i64 %51
  %53 = load double, ptr %gep151, align 8, !tbaa !22
  %54 = fadd double %52, %53
  %55 = fmul double %30, %54
  %56 = tail call double @llvm.fmuladd.f64(double %55, double 2.000000e+00, double %.091106)
  %indvars.iv.next127 = add nuw nsw i64 %indvars.iv126, 1
  %exitcond130.not = icmp eq i64 %indvars.iv.next127, %wide.trip.count139
  br i1 %exitcond130.not, label %._crit_edge110, label %.lr.ph109.split

._crit_edge110:                                   ; preds = %.lr.ph109.split, %._crit_edge102.us, %._crit_edge
  %.091.lcssa = phi double [ %31, %._crit_edge ], [ %50, %._crit_edge102.us ], [ %56, %.lr.ph109.split ]
  %57 = mul nsw i32 %32, %11
  %58 = sext i32 %57 to i64
  %59 = getelementptr double, ptr %3, i64 %58
  %60 = getelementptr i8, ptr %59, i64 40
  %61 = load double, ptr %60, align 8, !tbaa !22
  br i1 %19, label %.lr.ph117, label %._crit_edge118

.lr.ph117:                                        ; preds = %._crit_edge110
  %62 = add i32 %57, 5
  %wide.trip.count144 = zext nneg i32 %18 to i64
  br label %63

63:                                               ; preds = %.lr.ph117, %63
  %indvars.iv141 = phi i64 [ 1, %.lr.ph117 ], [ %indvars.iv.next142, %63 ]
  %.290114 = phi double [ %61, %.lr.ph117 ], [ %70, %63 ]
  %64 = trunc i64 %indvars.iv141 to i32
  %65 = mul i32 %5, %64
  %66 = add i32 %62, %65
  %67 = sext i32 %66 to i64
  %68 = getelementptr inbounds double, ptr %3, i64 %67
  %69 = load double, ptr %68, align 8, !tbaa !22
  %70 = tail call double @llvm.fmuladd.f64(double %69, double 2.000000e+00, double %.290114)
  %indvars.iv.next142 = add nuw nsw i64 %indvars.iv141, 1
  %exitcond145.not = icmp eq i64 %indvars.iv.next142, %wide.trip.count144
  br i1 %exitcond145.not, label %._crit_edge118, label %63

._crit_edge118:                                   ; preds = %63, %._crit_edge110
  %.290.lcssa = phi double [ %61, %._crit_edge110 ], [ %70, %63 ]
  %71 = add nsw i32 %25, %57
  %72 = sext i32 %71 to i64
  %73 = getelementptr inbounds double, ptr %3, i64 %72
  %74 = load double, ptr %73, align 8, !tbaa !22
  %75 = fadd double %.290.lcssa, %74
  %76 = fmul double %30, %75
  %77 = fadd double %.091.lcssa, %76
  %78 = fmul double %15, 5.000000e-01
  %79 = fmul double %78, %77
  ret double %79
}